target datalayout = "e-m:e-p270:32:32-p271:32:32-p272:64:64-i64:64-i128:128-f80:128-n8:16:32:64-S128"
target triple = "x86_64-pc-linux-gnu"

%"class.spacer::unsat_core_plugin" = type { ptr, ptr, ptr }
%class.ast_mark = type { ptr, %class.obj_mark, %class.obj_mark.0 }
%class.obj_mark = type { [8 x i8], %class.bit_vector }
%class.bit_vector = type { i32, i32, ptr }
%class.obj_mark.0 = type { [8 x i8], %class.bit_vector }
%class.svector.22 = type { %class.vector.23 }
%class.vector.23 = type { ptr }
%class.ptr_vector.48 = type { %class.vector.49 }
%class.vector.49 = type { ptr }
%class.obj_map.52 = type { %class.core_hashtable.53 }
%class.core_hashtable.53 = type <{ ptr, i32, i32, i32, [4 x i8] }>
%"class.spacer::unsat_core_plugin_min_cut" = type { %"class.spacer::unsat_core_plugin", %class.ast_mark, %class.obj_map.52, %class.obj_map.52, %class.vector.83, %class.ast_mark, %class.min_cut }
%class.vector.83 = type { ptr }
%class.min_cut = type { %class.vector.84, %class.svector.22, %class.svector.22 }
%class.vector.84 = type { ptr }

; Function Attrs: mustprogress nounwind uwtable
define linkonce_odr hidden noundef nonnull align 8 dereferenceable(8) ptr @_ZN6vectorIP3appLb0EjEixEj(ptr noundef nonnull align 8 dereferenceable(8) %0, i32 noundef %1) #5 comdat align 2 {
  %3 = alloca ptr, align 8
  %4 = alloca i32, align 4
  store ptr %0, ptr %3, align 8, !tbaa !161
  store i32 %1, ptr %4, align 4, !tbaa !48
  %5 = load ptr, ptr %3, align 8
  %6 = getelementptr inbounds nuw %class.vector.49, ptr %5, i32 0, i32 0
  %7 = load ptr, ptr %6, align 8, !tbaa !163
  %8 = load i32, ptr %4, align 4, !tbaa !48
  %9 = zext i32 %8 to i64
  %10 = getelementptr inbounds nuw ptr, ptr %7, i64 %9
  ret ptr %10
}

; Function Attrs: mustprogress nounwind uwtable
define linkonce_odr hidden noundef i32 @_ZNK6vectorIP3appLb0EjE4sizeEv(ptr noundef nonnull align 8 dereferenceable(8) %0) #5 comdat align 2 {
  %2 = alloca i32, align 4
  %3 = alloca ptr, align 8
  store ptr %0, ptr %3, align 8, !tbaa !161
  %4 = load ptr, ptr %3, align 8
  %5 = getelementptr inbounds nuw %class.vector.49, ptr %4, i32 0, i32 0
  %6 = load ptr, ptr %5, align 8, !tbaa !163
  %7 = icmp eq ptr %6, null
  br i1 %7, label %8, label %9

8:                                                ; preds = %1
  store i32 0, ptr %2, align 4
  br label %14

9:                                                ; preds = %1
  %10 = getelementptr inbounds nuw %class.vector.49, ptr %4, i32 0, i32 0
  %11 = load ptr, ptr %10, align 8, !tbaa !163
  %12 = getelementptr inbounds i32, ptr %11, i64 -1
  %13 = load i32, ptr %12, align 4, !tbaa !48
  store i32 %13, ptr %2, align 4
  br label %14

14:                                               ; preds = %9, %8
  %15 = load i32, ptr %2, align 4
  ret i32 %15
}

; Function Attrs: mustprogress nounwind uwtable
define linkonce_odr hidden void @_ZN6vectorIP3appLb0EjEC2Ev(ptr noundef nonnull align 8 dereferenceable(8) %0) unnamed_addr #5 comdat align 2 {
  %2 = alloca ptr, align 8
  store ptr %0, ptr %2, align 8, !tbaa !161
  %3 = load ptr, ptr %2, align 8
  %4 = getelementptr inbounds nuw %class.vector.49, ptr %3, i32 0, i32 0
  store ptr null, ptr %4, align 8, !tbaa !163
  ret void
}

; Function Attrs: mustprogress nounwind uwtable
define linkonce_odr hidden void @_ZN6vectorIP3appLb0EjE8pop_backEv(ptr noundef nonnull align 8 dereferenceable(8) %0) #5 comdat align 2 {
  %2 = alloca ptr, align 8
  store ptr %0, ptr %2, align 8, !tbaa !161
  %3 = load ptr, ptr %2, align 8
  %4 = getelementptr inbounds nuw %class.vector.49, ptr %3, i32 0, i32 0
  %5 = load ptr, ptr %4, align 8, !tbaa !163
  %6 = getelementptr inbounds i32, ptr %5, i64 -1
  %7 = load i32, ptr %6, align 4, !tbaa !48
  %8 = add i32 %7, -1
  store i32 %8, ptr %6, align 4, !tbaa !48
  ret void
}

; Function Attrs: mustprogress uwtable
define linkonce_odr hidden noundef nonnull align 8 dereferenceable(8) ptr @_ZN6vectorIP3appLb0EjE4backEv(ptr noundef nonnull align 8 dereferenceable(8) %0) #4 comdat align 2 {
  %2 = alloca ptr, align 8
  store ptr %0, ptr %2, align 8, !tbaa !161
  %3 = load ptr, ptr %2, align 8
  %4 = call noundef i32 @_ZNK6vectorIP3appLb0EjE4sizeEv(ptr noundef nonnull align 8 dereferenceable(8) %3)
  %5 = sub i32 %4, 1
  %6 = call noundef nonnull align 8 dereferenceable(8) ptr @_ZN6vectorIP3appLb0EjEixEj(ptr noundef nonnull align 8 dereferenceable(8) %3, i32 noundef %5)
  ret ptr %6
}

; Function Attrs: mustprogress nounwind uwtable
define linkonce_odr hidden noundef zeroext i1 @_ZNK6vectorIP3appLb0EjE5emptyEv(ptr noundef nonnull align 8 dereferenceable(8) %0) #5 comdat align 2 {
  %2 = alloca ptr, align 8
  store ptr %0, ptr %2, align 8, !tbaa !161
  %3 = load ptr, ptr %2, align 8
  %4 = getelementptr inbounds nuw %class.vector.49, ptr %3, i32 0, i32 0
  %5 = load ptr, ptr %4, align 8, !tbaa !163
  %6 = icmp eq ptr %5, null
  br i1 %6, label %13, label %7

7:                                                ; preds = %1
  %8 = getelementptr inbounds nuw %class.vector.49, ptr %3, i32 0, i32 0
  %9 = load ptr, ptr %8, align 8, !tbaa !163
  %10 = getelementptr inbounds i32, ptr %9, i64 -1
  %11 = load i32, ptr %10, align 4, !tbaa !48
  %12 = icmp eq i32 %11, 0
  br label %13

13:                                               ; preds = %7, %1
  %14 = phi i1 [ true, %1 ], [ %12, %7 ]
  ret i1 %14
}

; Function Attrs: mustprogress uwtable
define linkonce_odr hidden noundef nonnull align 8 dereferenceable(8) ptr @_ZN6vectorIP3appLb0EjE9push_backERKS1_(ptr noundef nonnull align 8 dereferenceable(8) %0, ptr noundef nonnull align 8 dereferenceable(8) %1) #4 comdat align 2 {
  %3 = alloca ptr, align 8
  %4 = alloca ptr, align 8
  store ptr %0, ptr %3, align 8, !tbaa !161
  store ptr %1, ptr %4, align 8, !tbaa !43
  %5 = load ptr, ptr %3, align 8
  %6 = getelementptr inbounds nuw %class.vector.49, ptr %5, i32 0, i32 0
  %7 = load ptr, ptr %6, align 8, !tbaa !163
  %8 = icmp eq ptr %7, null
  br i1 %8, label %19, label %9

9:                                                ; preds = %2
  %10 = getelementptr inbounds nuw %class.vector.49, ptr %5, i32 0, i32 0
  %11 = load ptr, ptr %10, align 8, !tbaa !163
  %12 = getelementptr inbounds i32, ptr %11, i64 -1
  %13 = load i32, ptr %12, align 4, !tbaa !48
  %14 = getelementptr inbounds nuw %class.vector.49, ptr %5, i32 0, i32 0
  %15 = load ptr, ptr %14, align 8, !tbaa !163
  %16 = getelementptr inbounds i32, ptr %15, i64 -2
  %17 = load i32, ptr %16, align 4, !tbaa !48
  %18 = icmp eq i32 %13, %17
  br i1 %18, label %19, label %20

19:                                               ; preds = %9, %2
  call void @_ZN6vectorIP3appLb0EjE13expand_vectorEv(ptr noundef nonnull align 8 dereferenceable(8) %5)
  br label %20

20:                                               ; preds = %19, %9
  %21 = getelementptr inbounds nuw %class.vector.49, ptr %5, i32 0, i32 0
  %22 = load ptr, ptr %21, align 8, !tbaa !163
  %23 = getelementptr inbounds nuw %class.vector.49, ptr %5, i32 0, i32 0
  %24 = load ptr, ptr %23, align 8, !tbaa !163
  %25 = getelementptr inbounds i32, ptr %24, i64 -1
  %26 = load i32, ptr %25, align 4, !tbaa !48
  %27 = zext i32 %26 to i64
  %28 = getelementptr inbounds nuw ptr, ptr %22, i64 %27
  %29 = load ptr, ptr %4, align 8, !tbaa !43
  %30 = load ptr, ptr %29, align 8, !tbaa !37
  store ptr %30, ptr %28, align 8, !tbaa !37
  %31 = getelementptr inbounds nuw %class.vector.49, ptr %5, i32 0, i32 0
  %32 = load ptr, ptr %31, align 8, !tbaa !163
  %33 = getelementptr inbounds i32, ptr %32, i64 -1
  %34 = load i32, ptr %33, align 4, !tbaa !48
  %35 = add i32 %34, 1
  store i32 %35, ptr %33, align 4, !tbaa !48
  ret ptr %5
}

; Function Attrs: mustprogress nounwind uwtable
define linkonce_odr hidden void @_ZN10ptr_vectorI3appEC2Ev(ptr noundef nonnull align 8 dereferenceable(8) %0) unnamed_addr #5 comdat align 2 {
  %2 = alloca ptr, align 8
  store ptr %0, ptr %2, align 8, !tbaa !157
  %3 = load ptr, ptr %2, align 8
  call void @_ZN6vectorIP3appLb0EjEC2Ev(ptr noundef nonnull align 8 dereferenceable(8) %3) #3
  ret void
}

; Function Attrs: mustprogress uwtable
define hidden void @_ZN6spacer25unsat_core_plugin_min_cut20compute_partial_coreEP3app(ptr noundef nonnull align 8 dereferenceable(216) %0, ptr noundef %1) unnamed_addr #4 align 2 personality ptr @__gxx_personality_v0 {
  %3 = alloca ptr, align 8
  %4 = alloca ptr, align 8
  %5 = alloca %class.ptr_vector.48, align 8
  %6 = alloca ptr, align 8
  %7 = alloca i32, align 4
  %8 = alloca ptr, align 8
  store ptr %0, ptr %3, align 8, !tbaa !226
  store ptr %1, ptr %4, align 8, !tbaa !37
  %9 = load ptr, ptr %3, align 8
  call void @llvm.lifetime.start.p0(i64 8, ptr %5) #3
  call void @_ZN10ptr_vectorI3appEC2Ev(ptr noundef nonnull align 8 dereferenceable(8) %5) #3
  %10 = invoke noundef nonnull align 8 dereferenceable(8) ptr @_ZN6vectorIP3appLb0EjE9push_backERKS1_(ptr noundef nonnull align 8 dereferenceable(8) %5, ptr noundef nonnull align 8 dereferenceable(8) %4)
          to label %11 unwind label %37

11:                                               ; preds = %2
  br label %12

12:                                               ; preds = %45, %11
  %13 = invoke noundef zeroext i1 @_ZNK6vectorIP3appLb0EjE5emptyEv(ptr noundef nonnull align 8 dereferenceable(8) %5)
          to label %14 unwind label %37

14:                                               ; preds = %12
  %15 = xor i1 %13, true
  br i1 %15, label %16, label %46

16:                                               ; preds = %14
  call void @llvm.lifetime.start.p0(i64 8, ptr %8) #3
  %17 = invoke noundef nonnull align 8 dereferenceable(8) ptr @_ZN6vectorIP3appLb0EjE4backEv(ptr noundef nonnull align 8 dereferenceable(8) %5)
          to label %18 unwind label %41

18:                                               ; preds = %16
  %19 = load ptr, ptr %17, align 8, !tbaa !37
  store ptr %19, ptr %8, align 8, !tbaa !37
  invoke void @_ZN6vectorIP3appLb0EjE8pop_backEv(ptr noundef nonnull align 8 dereferenceable(8) %5)
          to label %20 unwind label %41

20:                                               ; preds = %18
  %21 = getelementptr inbounds nuw %"class.spacer::unsat_core_plugin", ptr %9, i32 0, i32 2
  %22 = load ptr, ptr %21, align 8, !tbaa !45
  %23 = load ptr, ptr %8, align 8, !tbaa !37
  %24 = invoke noundef zeroext i1 @_ZN6spacer18unsat_core_learner9is_closedEP3app(ptr noundef nonnull align 8 dereferenceable(104) %22, ptr noundef %23)
          to label %25 unwind label %41

25:                                               ; preds = %20
  br i1 %24, label %45, label %26

26:                                               ; preds = %25
  %27 = getelementptr inbounds nuw %"class.spacer::unsat_core_plugin_min_cut", ptr %9, i32 0, i32 1
  %28 = load ptr, ptr %8, align 8, !tbaa !37
  %29 = invoke noundef zeroext i1 @_ZNK8ast_mark9is_markedEP3ast(ptr noundef nonnull align 8 dereferenceable(56) %27, ptr noundef %28)
          to label %30 unwind label %41

30:                                               ; preds = %26
  br i1 %29, label %45, label %31

31:                                               ; preds = %30
  %32 = load ptr, ptr %8, align 8, !tbaa !37
  invoke void @_ZN6spacer25unsat_core_plugin_min_cut29advance_to_lowest_partial_cutEP3appR10ptr_vectorIS1_E(ptr noundef nonnull align 8 dereferenceable(216) %9, ptr noundef %32, ptr noundef nonnull align 8 dereferenceable(8) %5)
          to label %33 unwind label %41

33:                                               ; preds = %31
  %34 = getelementptr inbounds nuw %"class.spacer::unsat_core_plugin_min_cut", ptr %9, i32 0, i32 1
  %35 = load ptr, ptr %8, align 8, !tbaa !37
  invoke void @_ZN8ast_mark4markEP3astb(ptr noundef nonnull align 8 dereferenceable(56) %34, ptr noundef %35, i1 noundef zeroext true)
          to label %36 unwind label %41

36:                                               ; preds = %33
  br label %45

37:                                               ; preds = %46, %12, %2
  %38 = landingpad { ptr, i32 }
          cleanup
  %39 = extractvalue { ptr, i32 } %38, 0
  store ptr %39, ptr %6, align 8
  %40 = extractvalue { ptr, i32 } %38, 1
  store i32 %40, ptr %7, align 4
  br label %51

41:                                               ; preds = %33, %31, %26, %20, %18, %16
  %42 = landingpad { ptr, i32 }
          cleanup
  %43 = extractvalue { ptr, i32 } %42, 0
  store ptr %43, ptr %6, align 8
  %44 = extractvalue { ptr, i32 } %42, 1
  store i32 %44, ptr %7, align 4
  call void @llvm.lifetime.end.p0(i64 8, ptr %8) #3
  br label %51

45:                                               ; preds = %36, %30, %25
  call void @llvm.lifetime.end.p0(i64 8, ptr %8) #3
  br label %12, !llvm.loop !234

46:                                               ; preds = %14
  %47 = getelementptr inbounds nuw %"class.spacer::unsat_core_plugin", ptr %9, i32 0, i32 2
  %48 = load ptr, ptr %47, align 8, !tbaa !45
  %49 = load ptr, ptr %4, align 8, !tbaa !37
  invoke void @_ZN6spacer18unsat_core_learner10set_closedEP3appb(ptr noundef nonnull align 8 dereferenceable(104) %48, ptr noundef %49, i1 noundef zeroext true)
          to label %50 unwind label %37

50:                                               ; preds = %46
  call void @_ZN6vectorIP3appLb0EjED2Ev(ptr noundef nonnull align 8 dereferenceable(8) %5) #3
  call void @llvm.lifetime.end.p0(i64 8, ptr %5) #3
  ret void

51:                                               ; preds = %41, %37
  call void @_ZN6vectorIP3appLb0EjED2Ev(ptr noundef nonnull align 8 dereferenceable(8) %5) #3
  call void @llvm.lifetime.end.p0(i64 8, ptr %5) #3
  br label %52

52:                                               ; preds = %51
  %53 = load ptr, ptr %6, align 8
  %54 = load i32, ptr %7, align 4
  %55 = insertvalue { ptr, i32 } poison, ptr %53, 0
  %56 = insertvalue { ptr, i32 } %55, i32 %54, 1
  resume { ptr, i32 } %56
}