; Function Attrs: mustprogress uwtable
define hidden void @_ZN6spacer25unsat_core_plugin_min_cut20compute_partial_coreEP3app(ptr noundef nonnull align 8 dereferenceable(216) %0, ptr noundef %1) unnamed_addr #4 align 2 personality ptr @__gxx_personality_v0 {
  %3 = alloca %class.ptr_vector.48, align 8
  call void @llvm.lifetime.start.p0(i64 8, ptr nonnull %3) #23
  store ptr null, ptr %3, align 8, !tbaa !210
  invoke void @_ZN6vectorIP3appLb0EjE13expand_vectorEv(ptr noundef nonnull align 8 dereferenceable(8) %3)
          to label %_ZNK6vectorIP3appLb0EjE5emptyEv.exit.lr.ph unwind label %26

_ZNK6vectorIP3appLb0EjE5emptyEv.exit.lr.ph:       ; preds = %2
  %.pre.i = load ptr, ptr %3, align 8, !tbaa !210
  %.phi.trans.insert.i = getelementptr inbounds i8, ptr %.pre.i, i64 -4
  %.pre2.i = load i32, ptr %.phi.trans.insert.i, align 4, !tbaa !160
  %4 = zext i32 %.pre2.i to i64
  %5 = getelementptr inbounds nuw ptr, ptr %.pre.i, i64 %4
  store ptr %1, ptr %5, align 8, !tbaa !109
  %6 = add i32 %.pre2.i, 1
  store i32 %6, ptr %.phi.trans.insert.i, align 4, !tbaa !160
  %7 = getelementptr inbounds nuw i8, ptr %0, i64 16
  %8 = getelementptr inbounds nuw i8, ptr %0, i64 24
  br label %_ZNK6vectorIP3appLb0EjE5emptyEv.exit

_ZNK6vectorIP3appLb0EjE5emptyEv.exit:             ; preds = %_ZNK6vectorIP3appLb0EjE5emptyEv.exit.lr.ph, %30
  %9 = phi ptr [ %.pre.i, %_ZNK6vectorIP3appLb0EjE5emptyEv.exit.lr.ph ], [ %31, %30 ]
  %10 = getelementptr inbounds i8, ptr %9, i64 -4
  %11 = load i32, ptr %10, align 4, !tbaa !160
  %12 = icmp eq i32 %11, 0
  br i1 %12, label %_ZNK6vectorIP3appLb0EjE5emptyEv.exit.thread, label %13

13:                                               ; preds = %_ZNK6vectorIP3appLb0EjE5emptyEv.exit
  %14 = add i32 %11, -1
  %15 = zext i32 %14 to i64
  %16 = getelementptr inbounds nuw ptr, ptr %9, i64 %15
  %17 = load ptr, ptr %16, align 8, !tbaa !109
  store i32 %14, ptr %10, align 4, !tbaa !160
  %18 = load ptr, ptr %7, align 8, !tbaa !108
  %19 = invoke noundef zeroext i1 @_ZN6spacer18unsat_core_learner9is_closedEP3app(ptr noundef nonnull align 8 dereferenceable(104) %18, ptr noundef %17)
          to label %20 unwind label %28

20:                                               ; preds = %13
  br i1 %19, label %30, label %21

21:                                               ; preds = %20
  %22 = invoke noundef zeroext i1 @_ZNK8ast_mark9is_markedEP3ast(ptr noundef nonnull align 8 dereferenceable(56) %8, ptr noundef %17)
          to label %23 unwind label %28

23:                                               ; preds = %21
  br i1 %22, label %30, label %24

24:                                               ; preds = %23
  invoke void @_ZN6spacer25unsat_core_plugin_min_cut29advance_to_lowest_partial_cutEP3appR10ptr_vectorIS1_E(ptr noundef nonnull align 8 dereferenceable(216) %0, ptr noundef %17, ptr noundef nonnull align 8 dereferenceable(8) %3)
          to label %25 unwind label %28

25:                                               ; preds = %24
  invoke void @_ZN8ast_mark4markEP3astb(ptr noundef nonnull align 8 dereferenceable(56) %8, ptr noundef %17, i1 noundef zeroext true)
          to label %30 unwind label %28

26:                                               ; preds = %2, %_ZNK6vectorIP3appLb0EjE5emptyEv.exit.thread
  %27 = landingpad { ptr, i32 }
          cleanup
  br label %42

28:                                               ; preds = %25, %24, %21, %13
  %29 = landingpad { ptr, i32 }
          cleanup
  br label %42

30:                                               ; preds = %25, %23, %20
  %31 = load ptr, ptr %3, align 8, !tbaa !210
  %32 = icmp eq ptr %31, null
  br i1 %32, label %_ZNK6vectorIP3appLb0EjE5emptyEv.exit.thread, label %_ZNK6vectorIP3appLb0EjE5emptyEv.exit, !llvm.loop !336

_ZNK6vectorIP3appLb0EjE5emptyEv.exit.thread:      ; preds = %_ZNK6vectorIP3appLb0EjE5emptyEv.exit, %30
  %33 = getelementptr inbounds nuw i8, ptr %0, i64 16
  %34 = load ptr, ptr %33, align 8, !tbaa !108
  invoke void @_ZN6spacer18unsat_core_learner10set_closedEP3appb(ptr noundef nonnull align 8 dereferenceable(104) %34, ptr noundef %1, i1 noundef zeroext true)
          to label %35 unwind label %26

35:                                               ; preds = %_ZNK6vectorIP3appLb0EjE5emptyEv.exit.thread
  %36 = load ptr, ptr %3, align 8, !tbaa !210
  %.not.i.i = icmp eq ptr %36, null
  br i1 %.not.i.i, label %_ZN6vectorIP3appLb0EjED2Ev.exit, label %37

37:                                               ; preds = %35
  %38 = getelementptr inbounds i8, ptr %36, i64 -8
  invoke void @_ZN6memory10deallocateEPv(ptr noundef nonnull %38)
          to label %_ZN6vectorIP3appLb0EjED2Ev.exit unwind label %39

39:                                               ; preds = %37
  %40 = landingpad { ptr, i32 }
          catch ptr null
  %41 = extractvalue { ptr, i32 } %40, 0
  call void @__clang_call_terminate(ptr %41) #24
  unreachable

_ZN6vectorIP3appLb0EjED2Ev.exit:                  ; preds = %35, %37
  call void @llvm.lifetime.end.p0(i64 8, ptr nonnull %3) #23
  ret void

42:                                               ; preds = %28, %26
  %.pn = phi { ptr, i32 } [ %29, %28 ], [ %27, %26 ]
  call void @_ZN6vectorIP3appLb0EjED2Ev(ptr noundef nonnull align 8 dereferenceable(8) %3) #23
  call void @llvm.lifetime.end.p0(i64 8, ptr nonnull %3) #23
  resume { ptr, i32 } %.pn
}